; Function Attrs: mustprogress uwtable
define internal fastcc void @_ZN7testing8internalL20PrintCharsAsStringToIwEENS0_10CharFormatEPKT_mPSo(ptr noundef readonly captures(none) %0, i64 noundef %1, ptr noundef nonnull %2) unnamed_addr #3 {
  %4 = tail call noundef nonnull align 8 dereferenceable(8) ptr @_ZSt16__ostream_insertIcSt11char_traitsIcEERSt13basic_ostreamIT_T0_ES6_PKS3_l(ptr noundef nonnull align 8 dereferenceable(8) %2, ptr noundef nonnull @.str.636, i64 noundef 1)
  %5 = tail call noundef nonnull align 8 dereferenceable(8) ptr @_ZSt16__ostream_insertIcSt11char_traitsIcEERSt13basic_ostreamIT_T0_ES6_PKS3_l(ptr noundef nonnull align 8 dereferenceable(8) %2, ptr noundef nonnull @.str.88, i64 noundef 1)
  %.not21 = icmp eq i64 %1, 0
  br i1 %.not21, label %._crit_edge, label %.lr.ph

._crit_edge:                                      ; preds = %_ZN7testing8internal8IsXDigitEw.exit.thread, %3
  %6 = tail call noundef nonnull align 8 dereferenceable(8) ptr @_ZSt16__ostream_insertIcSt11char_traitsIcEERSt13basic_ostreamIT_T0_ES6_PKS3_l(ptr noundef nonnull align 8 dereferenceable(8) %2, ptr noundef nonnull @.str.88, i64 noundef 1)
  ret void

.lr.ph:                                           ; preds = %3, %_ZN7testing8internal8IsXDigitEw.exit.thread
  %.020 = phi i1 [ %16, %_ZN7testing8internal8IsXDigitEw.exit.thread ], [ false, %3 ]
  %.01619 = phi i64 [ %17, %_ZN7testing8internal8IsXDigitEw.exit.thread ], [ 0, %3 ]
  %.01718 = phi i32 [ %spec.select, %_ZN7testing8internal8IsXDigitEw.exit.thread ], [ 0, %3 ]
  %7 = getelementptr inbounds nuw i32, ptr %0, i64 %.01619
  %8 = load i32, ptr %7, align 4, !tbaa !343
  %9 = icmp ult i32 %8, 256
  %or.cond = select i1 %.020, i1 %9, i1 false
  br i1 %or.cond, label %_ZN7testing8internal8IsXDigitEw.exit, label %_ZN7testing8internal8IsXDigitEw.exit.thread

_ZN7testing8internal8IsXDigitEw.exit:             ; preds = %.lr.ph
  %10 = tail call i32 @isxdigit(i32 noundef %8) #63
  %.not = icmp eq i32 %10, 0
  br i1 %.not, label %_ZN7testing8internal8IsXDigitEw.exit.thread, label %11

11:                                               ; preds = %_ZN7testing8internal8IsXDigitEw.exit
  %12 = tail call noundef nonnull align 8 dereferenceable(8) ptr @_ZSt16__ostream_insertIcSt11char_traitsIcEERSt13basic_ostreamIT_T0_ES6_PKS3_l(ptr noundef nonnull align 8 dereferenceable(8) %2, ptr noundef nonnull @.str.639, i64 noundef 2)
  %13 = tail call noundef nonnull align 8 dereferenceable(8) ptr @_ZSt16__ostream_insertIcSt11char_traitsIcEERSt13basic_ostreamIT_T0_ES6_PKS3_l(ptr noundef nonnull align 8 dereferenceable(8) %2, ptr noundef nonnull @.str.636, i64 noundef 1)
  %14 = tail call noundef nonnull align 8 dereferenceable(8) ptr @_ZSt16__ostream_insertIcSt11char_traitsIcEERSt13basic_ostreamIT_T0_ES6_PKS3_l(ptr noundef nonnull align 8 dereferenceable(8) %2, ptr noundef nonnull @.str.88, i64 noundef 1)
  br label %_ZN7testing8internal8IsXDigitEw.exit.thread

_ZN7testing8internal8IsXDigitEw.exit.thread:      ; preds = %11, %_ZN7testing8internal8IsXDigitEw.exit, %.lr.ph
  %15 = tail call fastcc noundef range(i32 0, 3) i32 @_ZN7testing8internalL22PrintAsStringLiteralToEDiPSo(i32 noundef zeroext %8, ptr noundef nonnull %2)
  %16 = icmp eq i32 %15, 1
  %spec.select = select i1 %16, i32 1, i32 %.01718
  %17 = add nuw i64 %.01619, 1
  %exitcond.not = icmp eq i64 %17, %1
  br i1 %exitcond.not, label %._crit_edge, label %.lr.ph, !llvm.loop !1710
}